target datalayout = "e-m:e-p270:32:32-p271:32:32-p272:64:64-i64:64-i128:128-f80:128-n8:16:32:64-S128"
target triple = "x86_64-pc-linux-gnu"

%struct.PlatformTarget = type { ptr, i32, ptr, ptr, i32, i32, i32, i32, i32, i32, i32, [7 x %struct.AlignData], [7 x %struct.AlignData], [7 x %struct.AlignData], i32, i16, %union.anon.85, i8, i8, i8, i8, i8, i8, i8, i8, i8, i8, %struct.AlignData, i32, i32, i32, i32, i32, i32, i32, i32, i32, i32, i32, i32, i32, i32, i32, i32, ptr }
%union.anon.85 = type { %struct.anon.87 }
%struct.anon.87 = type { %struct.X86Features, i32, i32 }
%struct.X86Features = type { [2 x i64], ptr }
%struct.AlignData = type { i32, i32 }
%struct.VHeader_ = type { i32, i32, [0 x i8] }
%struct.AbiType = type { %union.anon.1 }
%union.anon.1 = type { ptr }
%struct.Type_ = type { i32, ptr, ptr, ptr, %union.anon.96, ptr, ptr, %union.anon.98 }
%union.anon.96 = type { ptr }
%union.anon.98 = type { %struct.TypeFunction }
%struct.TypeFunction = type { ptr, ptr, ptr }
%struct.anon.94 = type { i32, i32 }
%struct.Decl_ = type { ptr, ptr, %union.SourceSpan, i64, %union.anon.5, i32, %union.anon.6, i64, ptr, ptr, ptr, %union.anon.7 }
%union.SourceSpan = type { i64 }
%union.anon.5 = type { ptr }
%union.anon.6 = type { i16 }
%union.anon.7 = type { %struct.FuncDecl }
%struct.FuncDecl = type { i32, [4 x i8], %struct.Signature_, i32, i32, %union.anon.14 }
%struct.Signature_ = type <{ %struct.CalleeAttributes, i16, i8, i32, i32, [4 x i8], ptr }>
%struct.CalleeAttributes = type { i8 }
%union.anon.14 = type { %struct.anon.15 }
%struct.anon.15 = type { i16, %union.anon.16 }
%union.anon.16 = type { ptr }
%struct.anon.8 = type { ptr, ptr, %union.anon.9 }
%union.anon.9 = type { %struct.BitStructDecl }
%struct.BitStructDecl = type { ptr, ptr, i8 }
%struct.TypeArray = type { ptr, i32 }
%struct.StructDecl = type { i32, ptr, i32, i16 }

@platform_target = external global %struct.PlatformTarget, align 8

; Function Attrs: nounwind uwtable
define internal void @abi_type_set_type(ptr noundef %0, ptr noundef %1) #0 {
  %3 = alloca ptr, align 8
  %4 = alloca ptr, align 8
  store ptr %0, ptr %3, align 8
  store ptr %1, ptr %4, align 8
  %5 = load ptr, ptr %4, align 8
  %6 = load ptr, ptr %3, align 8
  %7 = getelementptr inbounds %struct.AbiType, ptr %6, i32 0, i32 0
  store ptr %5, ptr %7, align 8
  ret void
}

; Function Attrs: nounwind uwtable
define internal zeroext i1 @abi_type_is_valid(ptr %0) #0 {
  %2 = alloca %struct.AbiType, align 8
  %3 = getelementptr inbounds %struct.AbiType, ptr %2, i32 0, i32 0
  %4 = getelementptr inbounds %union.anon.1, ptr %3, i32 0, i32 0
  store ptr %0, ptr %4, align 8
  %5 = getelementptr inbounds %struct.AbiType, ptr %2, i32 0, i32 0
  %6 = load i64, ptr %5, align 8
  %7 = icmp ne i64 %6, 0
  ret i1 %7
}

; Function Attrs: nounwind uwtable
define internal zeroext i1 @riscv_detect_fpcc_struct_internal(ptr noundef %0, i32 noundef %1, ptr noundef %2, ptr noundef %3, ptr noundef %4, ptr noundef %5) #0 {
  %7 = alloca ptr, align 8
  %8 = alloca i32, align 4
  %9 = alloca ptr, align 8
  %10 = alloca i32, align 4
  %11 = alloca ptr, align 8
  %12 = alloca i32, align 4
  %13 = alloca i32, align 4
  %14 = alloca ptr, align 8
  %15 = alloca ptr, align 8
  %16 = alloca i1, align 1
  %17 = alloca ptr, align 8
  %18 = alloca i32, align 4
  %19 = alloca ptr, align 8
  %20 = alloca ptr, align 8
  %21 = alloca ptr, align 8
  %22 = alloca ptr, align 8
  %23 = alloca i8, align 1
  %24 = alloca i8, align 1
  %25 = alloca i32, align 4
  %26 = alloca i64, align 8
  %27 = alloca i64, align 8
  %28 = alloca ptr, align 8
  %29 = alloca i64, align 8
  %30 = alloca i64, align 8
  %31 = alloca ptr, align 8
  %32 = alloca i32, align 4
  %33 = alloca i32, align 4
  %34 = alloca ptr, align 8
  store ptr %0, ptr %17, align 8
  store i32 %1, ptr %18, align 4
  store ptr %2, ptr %19, align 8
  store ptr %3, ptr %20, align 8
  store ptr %4, ptr %21, align 8
  store ptr %5, ptr %22, align 8
  %35 = load ptr, ptr %17, align 8
  store ptr %35, ptr %9, align 8
  %36 = load ptr, ptr %9, align 8
  %37 = load i32, ptr %36, align 8
  store i32 %37, ptr %10, align 4
  %38 = load i32, ptr %10, align 4
  %39 = icmp eq i32 %38, 31
  br i1 %39, label %40, label %45

40:                                               ; preds = %6
  %41 = load ptr, ptr %9, align 8
  %42 = getelementptr inbounds %struct.Type_, ptr %41, i32 0, i32 1
  %43 = load ptr, ptr %42, align 8
  %44 = load i32, ptr %43, align 8
  store i32 %44, ptr %10, align 4
  br label %45

45:                                               ; preds = %40, %6
  %46 = load i32, ptr %10, align 4
  %47 = icmp uge i32 %46, 2
  br i1 %47, label %48, label %51

48:                                               ; preds = %45
  %49 = load i32, ptr %10, align 4
  %50 = icmp ule i32 %49, 12
  br label %51

51:                                               ; preds = %48, %45
  %52 = phi i1 [ false, %45 ], [ %50, %48 ]
  %53 = zext i1 %52 to i8
  store i8 %53, ptr %23, align 1
  %54 = load ptr, ptr %17, align 8
  store ptr %54, ptr %11, align 8
  %55 = load ptr, ptr %11, align 8
  %56 = load i32, ptr %55, align 8
  store i32 %56, ptr %12, align 4
  %57 = load i32, ptr %12, align 4
  %58 = icmp eq i32 %57, 31
  br i1 %58, label %59, label %64

59:                                               ; preds = %51
  %60 = load ptr, ptr %11, align 8
  %61 = getelementptr inbounds %struct.Type_, ptr %60, i32 0, i32 1
  %62 = load ptr, ptr %61, align 8
  %63 = load i32, ptr %62, align 8
  store i32 %63, ptr %12, align 4
  br label %64

64:                                               ; preds = %59, %51
  %65 = load i32, ptr %12, align 4
  %66 = icmp uge i32 %65, 13
  br i1 %66, label %67, label %70

67:                                               ; preds = %64
  %68 = load i32, ptr %12, align 4
  %69 = icmp ule i32 %68, 17
  br label %70

70:                                               ; preds = %67, %64
  %71 = phi i1 [ false, %64 ], [ %69, %67 ]
  %72 = zext i1 %71 to i8
  store i8 %72, ptr %24, align 1
  %73 = load i32, ptr getelementptr inbounds (%struct.anon.94, ptr getelementptr inbounds (%struct.PlatformTarget, ptr @platform_target, i32 0, i32 16), i32 0, i32 1), align 4
  store i32 %73, ptr %25, align 4
  %74 = load ptr, ptr %17, align 8
  %75 = call i32 @type_size(ptr noundef %74)
  %76 = zext i32 %75 to i64
  store i64 %76, ptr %26, align 8
  %77 = load i8, ptr %23, align 1
  %78 = trunc i8 %77 to i1
  br i1 %78, label %82, label %79

79:                                               ; preds = %70
  %80 = load i8, ptr %24, align 1
  %81 = trunc i8 %80 to i1
  br i1 %81, label %82, label %142

82:                                               ; preds = %79, %70
  %83 = load i8, ptr %23, align 1
  %84 = trunc i8 %83 to i1
  br i1 %84, label %85, label %91

85:                                               ; preds = %82
  %86 = load i64, ptr %26, align 8
  %87 = load i32, ptr getelementptr inbounds (%struct.PlatformTarget, ptr @platform_target, i32 0, i32 16), align 8
  %88 = zext i32 %87 to i64
  %89 = icmp ugt i64 %86, %88
  br i1 %89, label %90, label %91

90:                                               ; preds = %85
  store i1 false, ptr %16, align 1
  br label %263

91:                                               ; preds = %85, %82
  %92 = load i8, ptr %24, align 1
  %93 = trunc i8 %92 to i1
  br i1 %93, label %94, label %103

94:                                               ; preds = %91
  %95 = load i64, ptr %26, align 8
  %96 = load i32, ptr %25, align 4
  %97 = zext i32 %96 to i64
  %98 = icmp ugt i64 %95, %97
  br i1 %98, label %102, label %99

99:                                               ; preds = %94
  %100 = load i64, ptr %26, align 8
  %101 = icmp ult i64 %100, 4
  br i1 %101, label %102, label %103

102:                                              ; preds = %99, %94
  store i1 false, ptr %16, align 1
  br label %263

103:                                              ; preds = %99, %91
  %104 = load i8, ptr %23, align 1
  %105 = trunc i8 %104 to i1
  br i1 %105, label %106, label %119

106:                                              ; preds = %103
  %107 = load ptr, ptr %19, align 8
  %108 = getelementptr inbounds %struct.AbiType, ptr %107, i32 0, i32 0
  %109 = getelementptr inbounds %union.anon.1, ptr %108, i32 0, i32 0
  %110 = load ptr, ptr %109, align 8
  %111 = call zeroext i1 @abi_type_is_valid(ptr %110)
  br i1 %111, label %112, label %119

112:                                              ; preds = %106
  %113 = load ptr, ptr %19, align 8
  %114 = getelementptr inbounds %struct.AbiType, ptr %113, i32 0, i32 0
  %115 = getelementptr inbounds %union.anon.1, ptr %114, i32 0, i32 0
  %116 = load ptr, ptr %115, align 8
  %117 = call zeroext i1 @abi_type_is_integer(ptr %116)
  br i1 %117, label %118, label %119

118:                                              ; preds = %112
  store i1 false, ptr %16, align 1
  br label %263

119:                                              ; preds = %112, %106, %103
  %120 = load ptr, ptr %19, align 8
  %121 = getelementptr inbounds %struct.AbiType, ptr %120, i32 0, i32 0
  %122 = getelementptr inbounds %union.anon.1, ptr %121, i32 0, i32 0
  %123 = load ptr, ptr %122, align 8
  %124 = call zeroext i1 @abi_type_is_valid(ptr %123)
  br i1 %124, label %130, label %125

125:                                              ; preds = %119
  %126 = load ptr, ptr %19, align 8
  %127 = load ptr, ptr %17, align 8
  call void @abi_type_set_type(ptr noundef %126, ptr noundef %127)
  %128 = load i32, ptr %18, align 4
  %129 = load ptr, ptr %20, align 8
  store i32 %128, ptr %129, align 4
  store i1 true, ptr %16, align 1
  br label %263

130:                                              ; preds = %119
  %131 = load ptr, ptr %21, align 8
  %132 = getelementptr inbounds %struct.AbiType, ptr %131, i32 0, i32 0
  %133 = getelementptr inbounds %union.anon.1, ptr %132, i32 0, i32 0
  %134 = load ptr, ptr %133, align 8
  %135 = call zeroext i1 @abi_type_is_valid(ptr %134)
  br i1 %135, label %141, label %136

136:                                              ; preds = %130
  %137 = load ptr, ptr %21, align 8
  %138 = load ptr, ptr %17, align 8
  call void @abi_type_set_type(ptr noundef %137, ptr noundef %138)
  %139 = load i32, ptr %18, align 4
  %140 = load ptr, ptr %22, align 8
  store i32 %139, ptr %140, align 4
  store i1 true, ptr %16, align 1
  br label %263

141:                                              ; preds = %130
  store i1 false, ptr %16, align 1
  br label %263

142:                                              ; preds = %79
  %143 = load ptr, ptr %17, align 8
  %144 = getelementptr inbounds %struct.Type_, ptr %143, i32 0, i32 0
  %145 = load i32, ptr %144, align 8
  %146 = icmp eq i32 %145, 33
  br i1 %146, label %147, label %182

147:                                              ; preds = %142
  %148 = load ptr, ptr %17, align 8
  %149 = getelementptr inbounds %struct.Type_, ptr %148, i32 0, i32 7
  %150 = getelementptr inbounds %struct.TypeArray, ptr %149, i32 0, i32 1
  %151 = load i32, ptr %150, align 8
  %152 = zext i32 %151 to i64
  store i64 %152, ptr %27, align 8
  %153 = load ptr, ptr %17, align 8
  %154 = getelementptr inbounds %struct.Type_, ptr %153, i32 0, i32 7
  %155 = getelementptr inbounds %struct.TypeArray, ptr %154, i32 0, i32 0
  %156 = load ptr, ptr %155, align 8
  store ptr %156, ptr %28, align 8
  %157 = load ptr, ptr %28, align 8
  %158 = call i32 @type_size(ptr noundef %157)
  %159 = zext i32 %158 to i64
  store i64 %159, ptr %29, align 8
  store i64 0, ptr %30, align 8
  br label %160

160:                                              ; preds = %178, %147
  %161 = load i64, ptr %30, align 8
  %162 = load i64, ptr %27, align 8
  %163 = icmp ult i64 %161, %162
  br i1 %163, label %164, label %181

164:                                              ; preds = %160
  %165 = load ptr, ptr %28, align 8
  %166 = load i32, ptr %18, align 4
  %167 = load ptr, ptr %19, align 8
  %168 = load ptr, ptr %20, align 8
  %169 = load ptr, ptr %21, align 8
  %170 = load ptr, ptr %22, align 8
  %171 = call zeroext i1 @riscv_detect_fpcc_struct_internal(ptr noundef %165, i32 noundef %166, ptr noundef %167, ptr noundef %168, ptr noundef %169, ptr noundef %170)
  br i1 %171, label %173, label %172

172:                                              ; preds = %164
  store i1 false, ptr %16, align 1
  br label %263

173:                                              ; preds = %164
  %174 = load i64, ptr %29, align 8
  %175 = trunc i64 %174 to i32
  %176 = load i32, ptr %18, align 4
  %177 = add i32 %176, %175
  store i32 %177, ptr %18, align 4
  br label %178

178:                                              ; preds = %173
  %179 = load i64, ptr %30, align 8
  %180 = add i64 %179, 1
  store i64 %180, ptr %30, align 8
  br label %160, !llvm.loop !9

181:                                              ; preds = %160
  store i1 true, ptr %16, align 1
  br label %263

182:                                              ; preds = %142
  %183 = load ptr, ptr %17, align 8
  store ptr %183, ptr %7, align 8
  %184 = load ptr, ptr %7, align 8
  %185 = load i32, ptr %184, align 8
  store i32 %185, ptr %8, align 4
  %186 = load i32, ptr %8, align 4
  %187 = icmp eq i32 %186, 31
  br i1 %187, label %188, label %193

188:                                              ; preds = %182
  %189 = load ptr, ptr %7, align 8
  %190 = getelementptr inbounds %struct.Type_, ptr %189, i32 0, i32 1
  %191 = load ptr, ptr %190, align 8
  %192 = load i32, ptr %191, align 8
  store i32 %192, ptr %8, align 4
  br label %193

193:                                              ; preds = %188, %182
  %194 = load i32, ptr %8, align 4
  %195 = icmp eq i32 %194, 27
  br i1 %195, label %199, label %196

196:                                              ; preds = %193
  %197 = load i32, ptr %8, align 4
  %198 = icmp eq i32 %197, 26
  br label %199

199:                                              ; preds = %196, %193
  %200 = phi i1 [ true, %193 ], [ %198, %196 ]
  br i1 %200, label %201, label %262

201:                                              ; preds = %199
  %202 = load ptr, ptr %17, align 8
  %203 = getelementptr inbounds %struct.Type_, ptr %202, i32 0, i32 0
  %204 = load i32, ptr %203, align 8
  %205 = icmp eq i32 %204, 27
  br i1 %205, label %206, label %207

206:                                              ; preds = %201
  store i1 false, ptr %16, align 1
  br label %263

207:                                              ; preds = %201
  %208 = load ptr, ptr %17, align 8
  %209 = getelementptr inbounds %struct.Type_, ptr %208, i32 0, i32 7
  %210 = load ptr, ptr %209, align 8
  %211 = getelementptr inbounds %struct.Decl_, ptr %210, i32 0, i32 11
  %212 = getelementptr inbounds %struct.anon.8, ptr %211, i32 0, i32 2
  %213 = getelementptr inbounds %struct.StructDecl, ptr %212, i32 0, i32 1
  %214 = load ptr, ptr %213, align 8
  store ptr %214, ptr %31, align 8
  store i32 0, ptr %32, align 4
  %215 = load ptr, ptr %31, align 8
  store ptr %215, ptr %14, align 8
  %216 = load ptr, ptr %14, align 8
  %217 = icmp ne ptr %216, null
  br i1 %217, label %219, label %218

218:                                              ; preds = %207
  store i32 0, ptr %13, align 4
  br label %224

219:                                              ; preds = %207
  %220 = load ptr, ptr %14, align 8
  store ptr %220, ptr %15, align 8
  %221 = load ptr, ptr %15, align 8
  %222 = getelementptr inbounds %struct.VHeader_, ptr %221, i64 -1
  %223 = load i32, ptr %222, align 4
  store i32 %223, ptr %13, align 4
  br label %224

224:                                              ; preds = %219, %218
  %225 = load i32, ptr %13, align 4
  store i32 %225, ptr %33, align 4
  br label %226

226:                                              ; preds = %253, %224
  %227 = load i32, ptr %32, align 4
  %228 = load i32, ptr %33, align 4
  %229 = icmp ult i32 %227, %228
  br i1 %229, label %230, label %256

230:                                              ; preds = %226
  %231 = load ptr, ptr %31, align 8
  %232 = load i32, ptr %32, align 4
  %233 = zext i32 %232 to i64
  %234 = getelementptr inbounds ptr, ptr %231, i64 %233
  %235 = load ptr, ptr %234, align 8
  store ptr %235, ptr %34, align 8
  %236 = load ptr, ptr %34, align 8
  %237 = getelementptr inbounds %struct.Decl_, ptr %236, i32 0, i32 10
  %238 = load ptr, ptr %237, align 8
  %239 = load i32, ptr %18, align 4
  %240 = load ptr, ptr %34, align 8
  %241 = getelementptr inbounds %struct.Decl_, ptr %240, i32 0, i32 7
  %242 = load i64, ptr %241, align 8
  %243 = and i64 %242, 4294967295
  %244 = trunc i64 %243 to i32
  %245 = add i32 %239, %244
  %246 = load ptr, ptr %19, align 8
  %247 = load ptr, ptr %20, align 8
  %248 = load ptr, ptr %21, align 8
  %249 = load ptr, ptr %22, align 8
  %250 = call zeroext i1 @riscv_detect_fpcc_struct_internal(ptr noundef %238, i32 noundef %245, ptr noundef %246, ptr noundef %247, ptr noundef %248, ptr noundef %249)
  br i1 %250, label %252, label %251

251:                                              ; preds = %230
  store i1 false, ptr %16, align 1
  br label %263

252:                                              ; preds = %230
  br label %253

253:                                              ; preds = %252
  %254 = load i32, ptr %32, align 4
  %255 = add i32 %254, 1
  store i32 %255, ptr %32, align 4
  br label %226, !llvm.loop !10

256:                                              ; preds = %226
  %257 = load ptr, ptr %19, align 8
  %258 = getelementptr inbounds %struct.AbiType, ptr %257, i32 0, i32 0
  %259 = getelementptr inbounds %union.anon.1, ptr %258, i32 0, i32 0
  %260 = load ptr, ptr %259, align 8
  %261 = call zeroext i1 @abi_type_is_valid(ptr %260)
  store i1 %261, ptr %16, align 1
  br label %263

262:                                              ; preds = %199
  store i1 false, ptr %16, align 1
  br label %263

263:                                              ; preds = %262, %256, %251, %206, %181, %172, %141, %136, %125, %118, %102, %90
  %264 = load i1, ptr %16, align 1
  ret i1 %264
}