; Function Attrs: nounwind uwtable
define internal fastcc zeroext i1 @riscv_detect_fpcc_struct_internal(ptr noundef %0, i32 noundef %1, ptr noundef %2, ptr noundef %3, ptr noundef %4, ptr noundef %5) unnamed_addr #0 {
  %7 = load i32, ptr %0, align 8
  %8 = icmp eq i32 %7, 31
  br i1 %8, label %9, label %13

9:                                                ; preds = %6
  %10 = getelementptr inbounds i8, ptr %0, i64 8
  %11 = load ptr, ptr %10, align 8
  %12 = load i32, ptr %11, align 8
  br label %13

13:                                               ; preds = %6, %9
  %.078 = phi i32 [ %12, %9 ], [ %7, %6 ]
  %.in = add i32 %.078, -2
  %14 = icmp ult i32 %.in, 11
  %15 = add i32 %.078, -13
  %16 = icmp ult i32 %15, 5
  %17 = load i32, ptr getelementptr inbounds (%struct.anon.94, ptr getelementptr inbounds (%struct.PlatformTarget, ptr @platform_target, i64 0, i32 16), i64 0, i32 1), align 4
  %18 = tail call i32 @type_size(ptr noundef nonnull %0) #5
  %brmerge = icmp ult i32 %.in, 16
  br i1 %brmerge, label %19, label %35

19:                                               ; preds = %13
  %20 = load i32, ptr getelementptr inbounds (%struct.PlatformTarget, ptr @platform_target, i64 0, i32 16), align 8
  %21 = icmp ugt i32 %18, %20
  %or.cond88 = select i1 %14, i1 %21, i1 false
  br i1 %or.cond88, label %.loopexit, label %22

22:                                               ; preds = %19
  br i1 %16, label %23, label %26

23:                                               ; preds = %22
  %24 = icmp ugt i32 %18, %17
  %25 = icmp ult i32 %18, 4
  %or.cond = or i1 %24, %25
  br i1 %or.cond, label %.loopexit, label %26

26:                                               ; preds = %23, %22
  br i1 %14, label %27, label %31

27:                                               ; preds = %26
  %28 = load ptr, ptr %2, align 8
  %.not95 = icmp eq ptr %28, null
  br i1 %.not95, label %.thread90, label %29

29:                                               ; preds = %27
  %30 = tail call zeroext i1 @abi_type_is_integer(ptr nonnull %28) #5
  br i1 %30, label %.loopexit, label %31

31:                                               ; preds = %29, %26
  %.pr = load ptr, ptr %2, align 8
  %.not96 = icmp eq ptr %.pr, null
  br i1 %.not96, label %.thread90, label %32

.thread90:                                        ; preds = %27, %31
  store ptr %0, ptr %2, align 8
  store i32 %1, ptr %3, align 4
  br label %.loopexit

32:                                               ; preds = %31
  %33 = load ptr, ptr %4, align 8
  %.not97 = icmp eq ptr %33, null
  br i1 %.not97, label %34, label %.loopexit

34:                                               ; preds = %32
  store ptr %0, ptr %4, align 8
  store i32 %1, ptr %5, align 4
  br label %.loopexit

35:                                               ; preds = %13
  %36 = load i32, ptr %0, align 8
  switch i32 %36, label %48 [
    i32 33, label %37
    i32 31, label %.thread91
  ]

37:                                               ; preds = %35
  %38 = getelementptr inbounds i8, ptr %0, i64 56
  %39 = getelementptr inbounds i8, ptr %0, i64 64
  %40 = load i32, ptr %39, align 8
  %41 = zext i32 %40 to i64
  %42 = load ptr, ptr %38, align 8
  %43 = tail call i32 @type_size(ptr noundef %42) #5
  %.not105 = icmp eq i32 %40, 0
  br i1 %.not105, label %.loopexit, label %.lr.ph

.lr.ph:                                           ; preds = %37, %45
  %.079100 = phi i64 [ %47, %45 ], [ 0, %37 ]
  %.08299 = phi i32 [ %46, %45 ], [ %1, %37 ]
  %44 = tail call fastcc zeroext i1 @riscv_detect_fpcc_struct_internal(ptr noundef %42, i32 noundef %.08299, ptr noundef %2, ptr noundef %3, ptr noundef %4, ptr noundef %5)
  br i1 %44, label %45, label %.loopexit

45:                                               ; preds = %.lr.ph
  %46 = add i32 %.08299, %43
  %47 = add nuw nsw i64 %.079100, 1
  %exitcond.not = icmp eq i64 %47, %41
  br i1 %exitcond.not, label %.loopexit, label %.lr.ph, !llvm.loop !9

48:                                               ; preds = %35
  %49 = and i32 %36, -2
  %50 = icmp ne i32 %49, 26
  %51 = icmp eq i32 %36, 27
  %or.cond94 = or i1 %51, %50
  br i1 %or.cond94, label %.loopexit, label %.thread93

.thread91:                                        ; preds = %35
  %52 = getelementptr inbounds i8, ptr %0, i64 8
  %53 = load ptr, ptr %52, align 8
  %54 = load i32, ptr %53, align 8
  %55 = and i32 %54, -2
  %56 = icmp eq i32 %55, 26
  br i1 %56, label %.thread93, label %.loopexit

.thread93:                                        ; preds = %48, %.thread91
  %57 = getelementptr inbounds i8, ptr %0, i64 56
  %58 = load ptr, ptr %57, align 8
  %59 = getelementptr inbounds i8, ptr %58, i64 104
  %60 = load ptr, ptr %59, align 8
  %.not = icmp eq ptr %60, null
  br i1 %.not, label %._crit_edge, label %61

61:                                               ; preds = %.thread93
  %62 = getelementptr inbounds i8, ptr %60, i64 -8
  %63 = load i32, ptr %62, align 4
  %.not106 = icmp eq i32 %63, 0
  br i1 %.not106, label %._crit_edge, label %.lr.ph104.preheader

.lr.ph104.preheader:                              ; preds = %61
  %wide.trip.count = zext i32 %63 to i64
  br label %.lr.ph104

64:                                               ; preds = %.lr.ph104
  %indvars.iv.next = add nuw nsw i64 %indvars.iv, 1
  %exitcond109.not = icmp eq i64 %indvars.iv.next, %wide.trip.count
  br i1 %exitcond109.not, label %._crit_edge, label %.lr.ph104, !llvm.loop !10

.lr.ph104:                                        ; preds = %.lr.ph104.preheader, %64
  %indvars.iv = phi i64 [ 0, %.lr.ph104.preheader ], [ %indvars.iv.next, %64 ]
  %65 = getelementptr inbounds ptr, ptr %60, i64 %indvars.iv
  %66 = load ptr, ptr %65, align 8
  %67 = getelementptr inbounds i8, ptr %66, i64 72
  %68 = load ptr, ptr %67, align 8
  %69 = getelementptr inbounds i8, ptr %66, i64 48
  %70 = load i64, ptr %69, align 8
  %71 = trunc i64 %70 to i32
  %72 = add i32 %71, %1
  %73 = tail call fastcc zeroext i1 @riscv_detect_fpcc_struct_internal(ptr noundef %68, i32 noundef %72, ptr noundef %2, ptr noundef %3, ptr noundef %4, ptr noundef %5)
  br i1 %73, label %64, label %.loopexit

._crit_edge:                                      ; preds = %64, %.thread93, %61
  %74 = load ptr, ptr %2, align 8
  %75 = icmp ne ptr %74, null
  br label %.loopexit

.loopexit:                                        ; preds = %.lr.ph, %45, %.lr.ph104, %37, %.thread91, %48, %32, %29, %23, %19, %._crit_edge, %34, %.thread90
  %.081 = phi i1 [ true, %34 ], [ true, %.thread90 ], [ %75, %._crit_edge ], [ false, %19 ], [ false, %23 ], [ false, %29 ], [ false, %32 ], [ false, %48 ], [ false, %.thread91 ], [ true, %37 ], [ false, %.lr.ph104 ], [ %44, %45 ], [ %44, %.lr.ph ]
  ret i1 %.081
}